target datalayout = "e-m:e-p270:32:32-p271:32:32-p272:64:64-i64:64-i128:128-f80:128-n8:16:32:64-S128"
target triple = "x86_64-pc-linux-gnu"

%struct.KINMemRec = type { ptr, double, ptr, ptr, double, double, i32, i64, i64, i64, i64, i32, i32, i32, i32, i32, i32, i32, i32, double, double, double, double, double, double, double, double, double, i32, double, i64, i64, i64, i64, i64, i64, i64, ptr, ptr, ptr, ptr, ptr, ptr, ptr, ptr, ptr, ptr, ptr, i32, i32, double, ptr, ptr, ptr, ptr, ptr, double, ptr, ptr, ptr, ptr, i64, i64, i32, ptr, ptr, i32, ptr, ptr, i64, i64, i64, i64, ptr, ptr, ptr, ptr, i32, ptr, double, double, double, double, double, i32, double, double, double, i32 }
%struct.KINLsMemRec = type { i32, i32, i32, ptr, ptr, ptr, ptr, double, i64, i64, i64, i64, i64, i64, i64, i32, i32, ptr, ptr, ptr, ptr, i32, ptr, ptr, ptr }

; Function Attrs: nounwind uwtable
define i32 @kinLsBandDQJac(ptr noundef %0, ptr noundef %1, ptr noundef %2, ptr noundef %3, ptr noundef %4, ptr noundef %5) #0 {
  %7 = alloca i32, align 4
  %8 = alloca ptr, align 8
  %9 = alloca ptr, align 8
  %10 = alloca ptr, align 8
  %11 = alloca ptr, align 8
  %12 = alloca ptr, align 8
  %13 = alloca ptr, align 8
  %14 = alloca double, align 8
  %15 = alloca double, align 8
  %16 = alloca ptr, align 8
  %17 = alloca ptr, align 8
  %18 = alloca i64, align 8
  %19 = alloca i64, align 8
  %20 = alloca i64, align 8
  %21 = alloca i64, align 8
  %22 = alloca i64, align 8
  %23 = alloca i64, align 8
  %24 = alloca i64, align 8
  %25 = alloca i64, align 8
  %26 = alloca i64, align 8
  %27 = alloca i64, align 8
  %28 = alloca ptr, align 8
  %29 = alloca ptr, align 8
  %30 = alloca ptr, align 8
  %31 = alloca ptr, align 8
  %32 = alloca ptr, align 8
  %33 = alloca ptr, align 8
  %34 = alloca ptr, align 8
  %35 = alloca i32, align 4
  %36 = alloca i32, align 4
  store ptr %0, ptr %8, align 8, !tbaa !85
  store ptr %1, ptr %9, align 8, !tbaa !85
  store ptr %2, ptr %10, align 8, !tbaa !9
  store ptr %3, ptr %11, align 8, !tbaa !11
  store ptr %4, ptr %12, align 8, !tbaa !85
  store ptr %5, ptr %13, align 8, !tbaa !85
  call void @llvm.lifetime.start.p0(i64 8, ptr %14) #7
  call void @llvm.lifetime.start.p0(i64 8, ptr %15) #7
  call void @llvm.lifetime.start.p0(i64 8, ptr %16) #7
  call void @llvm.lifetime.start.p0(i64 8, ptr %17) #7
  call void @llvm.lifetime.start.p0(i64 8, ptr %18) #7
  call void @llvm.lifetime.start.p0(i64 8, ptr %19) #7
  call void @llvm.lifetime.start.p0(i64 8, ptr %20) #7
  call void @llvm.lifetime.start.p0(i64 8, ptr %21) #7
  call void @llvm.lifetime.start.p0(i64 8, ptr %22) #7
  call void @llvm.lifetime.start.p0(i64 8, ptr %23) #7
  call void @llvm.lifetime.start.p0(i64 8, ptr %24) #7
  call void @llvm.lifetime.start.p0(i64 8, ptr %25) #7
  call void @llvm.lifetime.start.p0(i64 8, ptr %26) #7
  call void @llvm.lifetime.start.p0(i64 8, ptr %27) #7
  call void @llvm.lifetime.start.p0(i64 8, ptr %28) #7
  call void @llvm.lifetime.start.p0(i64 8, ptr %29) #7
  call void @llvm.lifetime.start.p0(i64 8, ptr %30) #7
  call void @llvm.lifetime.start.p0(i64 8, ptr %31) #7
  call void @llvm.lifetime.start.p0(i64 8, ptr %32) #7
  call void @llvm.lifetime.start.p0(i64 8, ptr %33) #7
  call void @llvm.lifetime.start.p0(i64 8, ptr %34) #7
  call void @llvm.lifetime.start.p0(i64 4, ptr %35) #7
  store i32 0, ptr %35, align 4, !tbaa !20
  %37 = load ptr, ptr %11, align 8, !tbaa !11
  %38 = getelementptr inbounds nuw %struct.KINMemRec, ptr %37, i32 0, i32 78
  %39 = load ptr, ptr %38, align 8, !tbaa !66
  store ptr %39, ptr %34, align 8, !tbaa !45
  %40 = load ptr, ptr %10, align 8, !tbaa !9
  %41 = call i64 @SUNBandMatrix_Columns(ptr noundef %40)
  store i64 %41, ptr %25, align 8, !tbaa !114
  %42 = load ptr, ptr %10, align 8, !tbaa !9
  %43 = call i64 @SUNBandMatrix_UpperBandwidth(ptr noundef %42)
  store i64 %43, ptr %26, align 8, !tbaa !114
  %44 = load ptr, ptr %10, align 8, !tbaa !9
  %45 = call i64 @SUNBandMatrix_LowerBandwidth(ptr noundef %44)
  store i64 %45, ptr %27, align 8, !tbaa !114
  %46 = load ptr, ptr %12, align 8, !tbaa !85
  store ptr %46, ptr %16, align 8, !tbaa !85
  %47 = load ptr, ptr %13, align 8, !tbaa !85
  store ptr %47, ptr %17, align 8, !tbaa !85
  %48 = load ptr, ptr %9, align 8, !tbaa !85
  %49 = call ptr @N_VGetArrayPointer(ptr noundef %48)
  store ptr %49, ptr %29, align 8, !tbaa !86
  %50 = load ptr, ptr %16, align 8, !tbaa !85
  %51 = call ptr @N_VGetArrayPointer(ptr noundef %50)
  store ptr %51, ptr %30, align 8, !tbaa !86
  %52 = load ptr, ptr %8, align 8, !tbaa !85
  %53 = call ptr @N_VGetArrayPointer(ptr noundef %52)
  store ptr %53, ptr %31, align 8, !tbaa !86
  %54 = load ptr, ptr %11, align 8, !tbaa !11
  %55 = getelementptr inbounds nuw %struct.KINMemRec, ptr %54, i32 0, i32 41
  %56 = load ptr, ptr %55, align 8, !tbaa !99
  %57 = call ptr @N_VGetArrayPointer(ptr noundef %56)
  store ptr %57, ptr %33, align 8, !tbaa !86
  %58 = load ptr, ptr %17, align 8, !tbaa !85
  %59 = call ptr @N_VGetArrayPointer(ptr noundef %58)
  store ptr %59, ptr %32, align 8, !tbaa !86
  %60 = load ptr, ptr %8, align 8, !tbaa !85
  %61 = load ptr, ptr %17, align 8, !tbaa !85
  call void @N_VScale(double noundef 1.000000e+00, ptr noundef %60, ptr noundef %61)
  %62 = load i64, ptr %27, align 8, !tbaa !114
  %63 = load i64, ptr %26, align 8, !tbaa !114
  %64 = add nsw i64 %62, %63
  %65 = add nsw i64 %64, 1
  store i64 %65, ptr %21, align 8, !tbaa !114
  %66 = load i64, ptr %21, align 8, !tbaa !114
  %67 = load i64, ptr %25, align 8, !tbaa !114
  %68 = icmp slt i64 %66, %67
  br i1 %68, label %69, label %71

69:                                               ; preds = %6
  %70 = load i64, ptr %21, align 8, !tbaa !114
  br label %73

71:                                               ; preds = %6
  %72 = load i64, ptr %25, align 8, !tbaa !114
  br label %73

73:                                               ; preds = %71, %69
  %74 = phi i64 [ %70, %69 ], [ %72, %71 ]
  store i64 %74, ptr %22, align 8, !tbaa !114
  store i64 1, ptr %18, align 8, !tbaa !114
  br label %75

75:                                               ; preds = %250, %73
  %76 = load i64, ptr %18, align 8, !tbaa !114
  %77 = load i64, ptr %22, align 8, !tbaa !114
  %78 = icmp sle i64 %76, %77
  br i1 %78, label %79, label %253

79:                                               ; preds = %75
  %80 = load i64, ptr %18, align 8, !tbaa !114
  %81 = sub nsw i64 %80, 1
  store i64 %81, ptr %20, align 8, !tbaa !114
  br label %82

82:                                               ; preds = %124, %79
  %83 = load i64, ptr %20, align 8, !tbaa !114
  %84 = load i64, ptr %25, align 8, !tbaa !114
  %85 = icmp slt i64 %83, %84
  br i1 %85, label %86, label %128

86:                                               ; preds = %82
  %87 = load ptr, ptr %11, align 8, !tbaa !11
  %88 = getelementptr inbounds nuw %struct.KINMemRec, ptr %87, i32 0, i32 21
  %89 = load double, ptr %88, align 8, !tbaa !100
  %90 = load ptr, ptr %31, align 8, !tbaa !86
  %91 = load i64, ptr %20, align 8, !tbaa !114
  %92 = getelementptr inbounds double, ptr %90, i64 %91
  %93 = load double, ptr %92, align 8, !tbaa !88
  %94 = call double @llvm.fabs.f64(double %93)
  %95 = load ptr, ptr %33, align 8, !tbaa !86
  %96 = load i64, ptr %20, align 8, !tbaa !114
  %97 = getelementptr inbounds double, ptr %95, i64 %96
  %98 = load double, ptr %97, align 8, !tbaa !88
  %99 = call double @llvm.fabs.f64(double %98)
  %100 = fdiv double 1.000000e+00, %99
  %101 = fcmp ogt double %94, %100
  br i1 %101, label %102, label %108

102:                                              ; preds = %86
  %103 = load ptr, ptr %31, align 8, !tbaa !86
  %104 = load i64, ptr %20, align 8, !tbaa !114
  %105 = getelementptr inbounds double, ptr %103, i64 %104
  %106 = load double, ptr %105, align 8, !tbaa !88
  %107 = call double @llvm.fabs.f64(double %106)
  br label %115

108:                                              ; preds = %86
  %109 = load ptr, ptr %33, align 8, !tbaa !86
  %110 = load i64, ptr %20, align 8, !tbaa !114
  %111 = getelementptr inbounds double, ptr %109, i64 %110
  %112 = load double, ptr %111, align 8, !tbaa !88
  %113 = call double @llvm.fabs.f64(double %112)
  %114 = fdiv double 1.000000e+00, %113
  br label %115

115:                                              ; preds = %108, %102
  %116 = phi double [ %107, %102 ], [ %114, %108 ]
  %117 = fmul double %89, %116
  store double %117, ptr %14, align 8, !tbaa !88
  %118 = load double, ptr %14, align 8, !tbaa !88
  %119 = load ptr, ptr %32, align 8, !tbaa !86
  %120 = load i64, ptr %20, align 8, !tbaa !114
  %121 = getelementptr inbounds double, ptr %119, i64 %120
  %122 = load double, ptr %121, align 8, !tbaa !88
  %123 = fadd double %122, %118
  store double %123, ptr %121, align 8, !tbaa !88
  br label %124

124:                                              ; preds = %115
  %125 = load i64, ptr %21, align 8, !tbaa !114
  %126 = load i64, ptr %20, align 8, !tbaa !114
  %127 = add nsw i64 %126, %125
  store i64 %127, ptr %20, align 8, !tbaa !114
  br label %82

128:                                              ; preds = %82
  %129 = load ptr, ptr %11, align 8, !tbaa !11
  %130 = getelementptr inbounds nuw %struct.KINMemRec, ptr %129, i32 0, i32 2
  %131 = load ptr, ptr %130, align 8, !tbaa !54
  %132 = load ptr, ptr %17, align 8, !tbaa !85
  %133 = load ptr, ptr %16, align 8, !tbaa !85
  %134 = load ptr, ptr %11, align 8, !tbaa !11
  %135 = getelementptr inbounds nuw %struct.KINMemRec, ptr %134, i32 0, i32 3
  %136 = load ptr, ptr %135, align 8, !tbaa !60
  %137 = call i32 %131(ptr noundef %132, ptr noundef %133, ptr noundef %136)
  store i32 %137, ptr %35, align 4, !tbaa !20
  %138 = load i32, ptr %35, align 4, !tbaa !20
  %139 = icmp ne i32 %138, 0
  br i1 %139, label %140, label %142

140:                                              ; preds = %128
  %141 = load i32, ptr %35, align 4, !tbaa !20
  store i32 %141, ptr %7, align 4
  store i32 1, ptr %36, align 4
  br label %259

142:                                              ; preds = %128
  %143 = load i64, ptr %18, align 8, !tbaa !114
  %144 = sub nsw i64 %143, 1
  store i64 %144, ptr %20, align 8, !tbaa !114
  br label %145

145:                                              ; preds = %245, %142
  %146 = load i64, ptr %20, align 8, !tbaa !114
  %147 = load i64, ptr %25, align 8, !tbaa !114
  %148 = icmp slt i64 %146, %147
  br i1 %148, label %149, label %249

149:                                              ; preds = %145
  %150 = load ptr, ptr %31, align 8, !tbaa !86
  %151 = load i64, ptr %20, align 8, !tbaa !114
  %152 = getelementptr inbounds double, ptr %150, i64 %151
  %153 = load double, ptr %152, align 8, !tbaa !88
  %154 = load ptr, ptr %32, align 8, !tbaa !86
  %155 = load i64, ptr %20, align 8, !tbaa !114
  %156 = getelementptr inbounds double, ptr %154, i64 %155
  store double %153, ptr %156, align 8, !tbaa !88
  %157 = load ptr, ptr %10, align 8, !tbaa !9
  %158 = load i64, ptr %20, align 8, !tbaa !114
  %159 = call ptr @SUNBandMatrix_Column(ptr noundef %157, i64 noundef %158)
  store ptr %159, ptr %28, align 8, !tbaa !86
  %160 = load ptr, ptr %11, align 8, !tbaa !11
  %161 = getelementptr inbounds nuw %struct.KINMemRec, ptr %160, i32 0, i32 21
  %162 = load double, ptr %161, align 8, !tbaa !100
  %163 = load ptr, ptr %31, align 8, !tbaa !86
  %164 = load i64, ptr %20, align 8, !tbaa !114
  %165 = getelementptr inbounds double, ptr %163, i64 %164
  %166 = load double, ptr %165, align 8, !tbaa !88
  %167 = call double @llvm.fabs.f64(double %166)
  %168 = load ptr, ptr %33, align 8, !tbaa !86
  %169 = load i64, ptr %20, align 8, !tbaa !114
  %170 = getelementptr inbounds double, ptr %168, i64 %169
  %171 = load double, ptr %170, align 8, !tbaa !88
  %172 = call double @llvm.fabs.f64(double %171)
  %173 = fdiv double 1.000000e+00, %172
  %174 = fcmp ogt double %167, %173
  br i1 %174, label %175, label %181

175:                                              ; preds = %149
  %176 = load ptr, ptr %31, align 8, !tbaa !86
  %177 = load i64, ptr %20, align 8, !tbaa !114
  %178 = getelementptr inbounds double, ptr %176, i64 %177
  %179 = load double, ptr %178, align 8, !tbaa !88
  %180 = call double @llvm.fabs.f64(double %179)
  br label %188

181:                                              ; preds = %149
  %182 = load ptr, ptr %33, align 8, !tbaa !86
  %183 = load i64, ptr %20, align 8, !tbaa !114
  %184 = getelementptr inbounds double, ptr %182, i64 %183
  %185 = load double, ptr %184, align 8, !tbaa !88
  %186 = call double @llvm.fabs.f64(double %185)
  %187 = fdiv double 1.000000e+00, %186
  br label %188

188:                                              ; preds = %181, %175
  %189 = phi double [ %180, %175 ], [ %187, %181 ]
  %190 = fmul double %162, %189
  store double %190, ptr %14, align 8, !tbaa !88
  %191 = load double, ptr %14, align 8, !tbaa !88
  %192 = fdiv double 1.000000e+00, %191
  store double %192, ptr %15, align 8, !tbaa !88
  %193 = load i64, ptr %20, align 8, !tbaa !114
  %194 = load i64, ptr %26, align 8, !tbaa !114
  %195 = sub nsw i64 %193, %194
  %196 = icmp sgt i64 0, %195
  br i1 %196, label %197, label %198

197:                                              ; preds = %188
  br label %202

198:                                              ; preds = %188
  %199 = load i64, ptr %20, align 8, !tbaa !114
  %200 = load i64, ptr %26, align 8, !tbaa !114
  %201 = sub nsw i64 %199, %200
  br label %202

202:                                              ; preds = %198, %197
  %203 = phi i64 [ 0, %197 ], [ %201, %198 ]
  store i64 %203, ptr %23, align 8, !tbaa !114
  %204 = load i64, ptr %20, align 8, !tbaa !114
  %205 = load i64, ptr %27, align 8, !tbaa !114
  %206 = add nsw i64 %204, %205
  %207 = load i64, ptr %25, align 8, !tbaa !114
  %208 = sub nsw i64 %207, 1
  %209 = icmp slt i64 %206, %208
  br i1 %209, label %210, label %214

210:                                              ; preds = %202
  %211 = load i64, ptr %20, align 8, !tbaa !114
  %212 = load i64, ptr %27, align 8, !tbaa !114
  %213 = add nsw i64 %211, %212
  br label %217

214:                                              ; preds = %202
  %215 = load i64, ptr %25, align 8, !tbaa !114
  %216 = sub nsw i64 %215, 1
  br label %217

217:                                              ; preds = %214, %210
  %218 = phi i64 [ %213, %210 ], [ %216, %214 ]
  store i64 %218, ptr %24, align 8, !tbaa !114
  %219 = load i64, ptr %23, align 8, !tbaa !114
  store i64 %219, ptr %19, align 8, !tbaa !114
  br label %220

220:                                              ; preds = %241, %217
  %221 = load i64, ptr %19, align 8, !tbaa !114
  %222 = load i64, ptr %24, align 8, !tbaa !114
  %223 = icmp sle i64 %221, %222
  br i1 %223, label %224, label %244

224:                                              ; preds = %220
  %225 = load double, ptr %15, align 8, !tbaa !88
  %226 = load ptr, ptr %30, align 8, !tbaa !86
  %227 = load i64, ptr %19, align 8, !tbaa !114
  %228 = getelementptr inbounds double, ptr %226, i64 %227
  %229 = load double, ptr %228, align 8, !tbaa !88
  %230 = load ptr, ptr %29, align 8, !tbaa !86
  %231 = load i64, ptr %19, align 8, !tbaa !114
  %232 = getelementptr inbounds double, ptr %230, i64 %231
  %233 = load double, ptr %232, align 8, !tbaa !88
  %234 = fsub double %229, %233
  %235 = fmul double %225, %234
  %236 = load ptr, ptr %28, align 8, !tbaa !86
  %237 = load i64, ptr %19, align 8, !tbaa !114
  %238 = load i64, ptr %20, align 8, !tbaa !114
  %239 = sub nsw i64 %237, %238
  %240 = getelementptr inbounds double, ptr %236, i64 %239
  store double %235, ptr %240, align 8, !tbaa !88
  br label %241

241:                                              ; preds = %224
  %242 = load i64, ptr %19, align 8, !tbaa !114
  %243 = add nsw i64 %242, 1
  store i64 %243, ptr %19, align 8, !tbaa !114
  br label %220

244:                                              ; preds = %220
  br label %245

245:                                              ; preds = %244
  %246 = load i64, ptr %21, align 8, !tbaa !114
  %247 = load i64, ptr %20, align 8, !tbaa !114
  %248 = add nsw i64 %247, %246
  store i64 %248, ptr %20, align 8, !tbaa !114
  br label %145

249:                                              ; preds = %145
  br label %250

250:                                              ; preds = %249
  %251 = load i64, ptr %18, align 8, !tbaa !114
  %252 = add nsw i64 %251, 1
  store i64 %252, ptr %18, align 8, !tbaa !114
  br label %75

253:                                              ; preds = %75
  %254 = load i64, ptr %22, align 8, !tbaa !114
  %255 = load ptr, ptr %34, align 8, !tbaa !45
  %256 = getelementptr inbounds nuw %struct.KINLsMemRec, ptr %255, i32 0, i32 9
  %257 = load i64, ptr %256, align 8, !tbaa !101
  %258 = add nsw i64 %257, %254
  store i64 %258, ptr %256, align 8, !tbaa !101
  store i32 0, ptr %7, align 4
  store i32 1, ptr %36, align 4
  br label %259

259:                                              ; preds = %253, %140
  call void @llvm.lifetime.end.p0(i64 4, ptr %35) #7
  call void @llvm.lifetime.end.p0(i64 8, ptr %34) #7
  call void @llvm.lifetime.end.p0(i64 8, ptr %33) #7
  call void @llvm.lifetime.end.p0(i64 8, ptr %32) #7
  call void @llvm.lifetime.end.p0(i64 8, ptr %31) #7
  call void @llvm.lifetime.end.p0(i64 8, ptr %30) #7
  call void @llvm.lifetime.end.p0(i64 8, ptr %29) #7
  call void @llvm.lifetime.end.p0(i64 8, ptr %28) #7
  call void @llvm.lifetime.end.p0(i64 8, ptr %27) #7
  call void @llvm.lifetime.end.p0(i64 8, ptr %26) #7
  call void @llvm.lifetime.end.p0(i64 8, ptr %25) #7
  call void @llvm.lifetime.end.p0(i64 8, ptr %24) #7
  call void @llvm.lifetime.end.p0(i64 8, ptr %23) #7
  call void @llvm.lifetime.end.p0(i64 8, ptr %22) #7
  call void @llvm.lifetime.end.p0(i64 8, ptr %21) #7
  call void @llvm.lifetime.end.p0(i64 8, ptr %20) #7
  call void @llvm.lifetime.end.p0(i64 8, ptr %19) #7
  call void @llvm.lifetime.end.p0(i64 8, ptr %18) #7
  call void @llvm.lifetime.end.p0(i64 8, ptr %17) #7
  call void @llvm.lifetime.end.p0(i64 8, ptr %16) #7
  call void @llvm.lifetime.end.p0(i64 8, ptr %15) #7
  call void @llvm.lifetime.end.p0(i64 8, ptr %14) #7
  %260 = load i32, ptr %7, align 4
  ret i32 %260
}