; Function Attrs: nounwind uwtable
define i32 @kinLsBandDQJac(ptr noundef %0, ptr noundef %1, ptr noundef %2, ptr noundef readonly captures(none) %3, ptr noundef %4, ptr noundef %5) local_unnamed_addr #0 {
  %7 = getelementptr inbounds nuw i8, ptr %3, i64 584
  %8 = load ptr, ptr %7, align 8, !tbaa !55
  %9 = tail call i64 @SUNBandMatrix_Columns(ptr noundef %2) #13
  %10 = tail call i64 @SUNBandMatrix_UpperBandwidth(ptr noundef %2) #13
  %11 = tail call i64 @SUNBandMatrix_LowerBandwidth(ptr noundef %2) #13
  %12 = tail call ptr @N_VGetArrayPointer(ptr noundef %1) #13
  %13 = tail call ptr @N_VGetArrayPointer(ptr noundef %4) #13
  %14 = tail call ptr @N_VGetArrayPointer(ptr noundef %0) #13
  %15 = getelementptr inbounds nuw i8, ptr %3, i64 296
  %16 = load ptr, ptr %15, align 8, !tbaa !88
  %17 = tail call ptr @N_VGetArrayPointer(ptr noundef %16) #13
  %18 = tail call ptr @N_VGetArrayPointer(ptr noundef %5) #13
  tail call void @N_VScale(double noundef 1.000000e+00, ptr noundef %0, ptr noundef %5) #13
  %19 = add i64 %10, 1
  %20 = add i64 %19, %11
  %21 = tail call i64 @llvm.smin.i64(i64 %20, i64 %9)
  %.not114 = icmp slt i64 %21, 1
  br i1 %.not114, label %._crit_edge118, label %.lr.ph117

.lr.ph117:                                        ; preds = %6
  %22 = getelementptr inbounds nuw i8, ptr %3, i64 136
  %23 = getelementptr inbounds nuw i8, ptr %3, i64 16
  %24 = getelementptr inbounds nuw i8, ptr %3, i64 24
  %25 = add nsw i64 %9, -1
  br label %.lr.ph.preheader

.lr.ph.preheader:                                 ; preds = %._crit_edge113, %.lr.ph117
  %.090115 = phi i64 [ 1, %.lr.ph117 ], [ %74, %._crit_edge113 ]
  %26 = add nsw i64 %.090115, -1
  br label %.lr.ph

.lr.ph:                                           ; preds = %.lr.ph.preheader, %.lr.ph
  %.092105 = phi i64 [ %40, %.lr.ph ], [ %26, %.lr.ph.preheader ]
  %27 = load double, ptr %22, align 8, !tbaa !89
  %28 = getelementptr inbounds double, ptr %14, i64 %.092105
  %29 = load double, ptr %28, align 8, !tbaa !84
  %30 = tail call double @llvm.fabs.f64(double %29)
  %31 = getelementptr inbounds double, ptr %17, i64 %.092105
  %32 = load double, ptr %31, align 8, !tbaa !84
  %33 = tail call double @llvm.fabs.f64(double %32)
  %34 = fdiv double 1.000000e+00, %33
  %35 = fcmp ogt double %30, %34
  %. = select i1 %35, double %30, double %34
  %36 = fmul double %27, %.
  %37 = getelementptr inbounds double, ptr %18, i64 %.092105
  %38 = load double, ptr %37, align 8, !tbaa !84
  %39 = fadd double %38, %36
  store double %39, ptr %37, align 8, !tbaa !84
  %40 = add nsw i64 %.092105, %20
  %41 = icmp slt i64 %40, %9
  br i1 %41, label %.lr.ph, label %._crit_edge

._crit_edge:                                      ; preds = %.lr.ph
  %42 = load ptr, ptr %23, align 8, !tbaa !46
  %43 = load ptr, ptr %24, align 8, !tbaa !49
  %44 = tail call i32 %42(ptr noundef %5, ptr noundef %4, ptr noundef %43) #13
  %.not102 = icmp eq i32 %44, 0
  br i1 %.not102, label %.lr.ph112, label %.loopexit

.lr.ph112:                                        ; preds = %._crit_edge, %._crit_edge110
  %.1111 = phi i64 [ %72, %._crit_edge110 ], [ %26, %._crit_edge ]
  %45 = getelementptr inbounds double, ptr %14, i64 %.1111
  %46 = load double, ptr %45, align 8, !tbaa !84
  %47 = getelementptr inbounds double, ptr %18, i64 %.1111
  store double %46, ptr %47, align 8, !tbaa !84
  %48 = tail call ptr @SUNBandMatrix_Column(ptr noundef %2, i64 noundef %.1111) #13
  %49 = load double, ptr %22, align 8, !tbaa !89
  %50 = load double, ptr %45, align 8, !tbaa !84
  %51 = tail call double @llvm.fabs.f64(double %50)
  %52 = getelementptr inbounds double, ptr %17, i64 %.1111
  %53 = load double, ptr %52, align 8, !tbaa !84
  %54 = tail call double @llvm.fabs.f64(double %53)
  %55 = fdiv double 1.000000e+00, %54
  %56 = fcmp ogt double %51, %55
  %.104 = select i1 %56, double %51, double %55
  %57 = fmul double %49, %.104
  %58 = fdiv double 1.000000e+00, %57
  %59 = sub nsw i64 %.1111, %10
  %60 = tail call i64 @llvm.smax.i64(i64 %59, i64 0)
  %61 = add nsw i64 %.1111, %11
  %62 = tail call i64 @llvm.smin.i64(i64 %61, i64 %25)
  %.not103106 = icmp sgt i64 %60, %62
  br i1 %.not103106, label %._crit_edge110, label %.lr.ph109

.lr.ph109:                                        ; preds = %.lr.ph112, %.lr.ph109
  %.091107 = phi i64 [ %71, %.lr.ph109 ], [ %60, %.lr.ph112 ]
  %63 = getelementptr inbounds nuw double, ptr %13, i64 %.091107
  %64 = load double, ptr %63, align 8, !tbaa !84
  %65 = getelementptr inbounds nuw double, ptr %12, i64 %.091107
  %66 = load double, ptr %65, align 8, !tbaa !84
  %67 = fsub double %64, %66
  %68 = fmul double %58, %67
  %69 = sub nsw i64 %.091107, %.1111
  %70 = getelementptr inbounds double, ptr %48, i64 %69
  store double %68, ptr %70, align 8, !tbaa !84
  %71 = add nuw nsw i64 %.091107, 1
  %.not103.not = icmp slt i64 %.091107, %62
  br i1 %.not103.not, label %.lr.ph109, label %._crit_edge110

._crit_edge110:                                   ; preds = %.lr.ph109, %.lr.ph112
  %72 = add nsw i64 %.1111, %20
  %73 = icmp slt i64 %72, %9
  br i1 %73, label %.lr.ph112, label %._crit_edge113

._crit_edge113:                                   ; preds = %._crit_edge110
  %74 = add nuw i64 %.090115, 1
  %exitcond.not = icmp eq i64 %.090115, %21
  br i1 %exitcond.not, label %._crit_edge118, label %.lr.ph.preheader

._crit_edge118:                                   ; preds = %._crit_edge113, %6
  %75 = getelementptr inbounds nuw i8, ptr %8, i64 64
  %76 = load i64, ptr %75, align 8, !tbaa !90
  %77 = add nsw i64 %76, %21
  store i64 %77, ptr %75, align 8, !tbaa !90
  br label %.loopexit

.loopexit:                                        ; preds = %._crit_edge, %._crit_edge118
  %.0 = phi i32 [ 0, %._crit_edge118 ], [ %44, %._crit_edge ]
  ret i32 %.0
}